ARM GAS  /tmp/ccoGk7K3.s 			page 1


   1              		.cpu cortex-m4
   2              		.eabi_attribute 27, 1
   3              		.eabi_attribute 28, 1
   4              		.eabi_attribute 20, 1
   5              		.eabi_attribute 21, 1
   6              		.eabi_attribute 23, 3
   7              		.eabi_attribute 24, 1
   8              		.eabi_attribute 25, 1
   9              		.eabi_attribute 26, 1
  10              		.eabi_attribute 30, 1
  11              		.eabi_attribute 34, 1
  12              		.eabi_attribute 18, 4
  13              		.file	"main.c"
  14              		.text
  15              	.Ltext0:
  16              		.cfi_sections	.debug_frame
  17              		.section	.text.GPIO_Init,"ax",%progbits
  18              		.align	1
  19              		.global	GPIO_Init
  20              		.arch armv7e-m
  21              		.syntax unified
  22              		.thumb
  23              		.thumb_func
  24              		.fpu fpv4-sp-d16
  26              	GPIO_Init:
  27              	.LFB136:
  28              		.file 1 "Core/Src/main.c"
   1:Core/Src/main.c **** /*----------------------------------------------------------------
   2:Core/Src/main.c ****  * Description:  This is an example program that demos how to run
   3:Core/Src/main.c ****  * STM32 C programs in VSCode.  It will observe a button on PC13
   4:Core/Src/main.c ****  * and will toggle the LED connected to A5 when it is pressed.
   5:Core/Src/main.c ****  *----------------------------------------------------------------
   6:Core/Src/main.c ****  * Created by:  Scott Zuidema
   7:Core/Src/main.c ****  *----------------------------------------------------------------
   8:Core/Src/main.c ****  * Date Created: 12/5/2021
   9:Core/Src/main.c ****  * Date Updated: 12/7/2021
  10:Core/Src/main.c ****  *----------------------------------------------------------------
  11:Core/Src/main.c ****  * Revision history:
  12:Core/Src/main.c ****  * 0.1 - 12/5/2021 - First attempt at VSCode (worked)
  13:Core/Src/main.c ****  * 0.2 - 12/7/2021 - Added this header block for comments
  14:Core/Src/main.c ****  *----------------------------------------------------------------
  15:Core/Src/main.c ****  * Referenced code from Dr. Karl Brakora from given example
  16:Core/Src/main.c ****  * from 11/3/2021.
  17:Core/Src/main.c ****  *--------------------------------------------------------------*/
  18:Core/Src/main.c **** #include "main.h"
  19:Core/Src/main.c **** #include "stm32l476xx.h"
  20:Core/Src/main.c **** #include <stdio.h>
  21:Core/Src/main.c **** 
  22:Core/Src/main.c **** void GPIO_Init(void);
  23:Core/Src/main.c **** void delayms(uint16_t ms);
  24:Core/Src/main.c **** 
  25:Core/Src/main.c **** char print_out[100];
  26:Core/Src/main.c **** 
  27:Core/Src/main.c **** int main(void)
  28:Core/Src/main.c **** {
  29:Core/Src/main.c ****   GPIO_Init();
  30:Core/Src/main.c ****   int i = 1;
ARM GAS  /tmp/ccoGk7K3.s 			page 2


  31:Core/Src/main.c ****   while (1)
  32:Core/Src/main.c ****   {
  33:Core/Src/main.c ****     i ++;
  34:Core/Src/main.c ****     if(!(GPIOC->IDR & 1<<13))          //Light blinks when button 1 pressed (C13)
  35:Core/Src/main.c ****     {
  36:Core/Src/main.c ****       GPIOA->ODR ^= 1<<5;             //Toggle bit A5.
  37:Core/Src/main.c ****       delayms(30);
  38:Core/Src/main.c ****       while(!(GPIOC->IDR & 1<<13));
  39:Core/Src/main.c ****       delayms(i);
  40:Core/Src/main.c ****       sprintf(print_out,"Hello World\n");
  41:Core/Src/main.c ****     }
  42:Core/Src/main.c ****     if(i>100)  //test
  43:Core/Src/main.c ****     {  //test
  44:Core/Src/main.c ****       i = 1;
  45:Core/Src/main.c ****     }
  46:Core/Src/main.c ****   }
  47:Core/Src/main.c **** }
  48:Core/Src/main.c **** 
  49:Core/Src/main.c **** /*----------------------------------------------------------------
  50:Core/Src/main.c ****  * void GPIO_Init(void)
  51:Core/Src/main.c ****  *----------------------------------------------------------------
  52:Core/Src/main.c ****  * Description :  This function will set PC13 up as a button input
  53:Core/Src/main.c ****  * without a pull up or pull down resistor.  It will also setup
  54:Core/Src/main.c ****  * A5 as an LED output.
  55:Core/Src/main.c ****  *----------------------------------------------------------------
  56:Core/Src/main.c ****  * Inputs: None
  57:Core/Src/main.c ****  *----------------------------------------------------------------
  58:Core/Src/main.c ****  * Outputs: None
  59:Core/Src/main.c ****  *----------------------------------------------------------------
  60:Core/Src/main.c ****  * Created by:  Scott Zuidema
  61:Core/Src/main.c ****  *----------------------------------------------------------------
  62:Core/Src/main.c ****  * Date Created: 12/5/2021
  63:Core/Src/main.c ****  *----------------------------------------------------------------
  64:Core/Src/main.c ****  * Revision history:
  65:Core/Src/main.c ****  * 0.1 - 12/5/2021 - First attempt at function (worked)
  66:Core/Src/main.c ****  *----------------------------------------------------------------
  67:Core/Src/main.c ****  * Referenced code from Dr. Karl Brakora from given example
  68:Core/Src/main.c ****  * from 11/3/2021.
  69:Core/Src/main.c ****  *--------------------------------------------------------------*/
  70:Core/Src/main.c **** void GPIO_Init(void)
  71:Core/Src/main.c **** {
  29              		.loc 1 71 1 view -0
  30              		.cfi_startproc
  31              		@ args = 0, pretend = 0, frame = 0
  32              		@ frame_needed = 0, uses_anonymous_args = 0
  33              		@ link register save eliminated.
  72:Core/Src/main.c ****   RCC->AHB2ENR |= RCC_AHB2ENR_GPIOAEN;
  34              		.loc 1 72 3 view .LVU1
  35              		.loc 1 72 16 is_stmt 0 view .LVU2
  36 0000 134B     		ldr	r3, .L2
  37 0002 DA6C     		ldr	r2, [r3, #76]
  38 0004 42F00102 		orr	r2, r2, #1
  39 0008 DA64     		str	r2, [r3, #76]
  73:Core/Src/main.c ****   RCC->AHB2ENR |= RCC_AHB2ENR_GPIOCEN;
  40              		.loc 1 73 3 is_stmt 1 view .LVU3
  41              		.loc 1 73 16 is_stmt 0 view .LVU4
  42 000a DA6C     		ldr	r2, [r3, #76]
ARM GAS  /tmp/ccoGk7K3.s 			page 3


  43 000c 42F00402 		orr	r2, r2, #4
  44 0010 DA64     		str	r2, [r3, #76]
  74:Core/Src/main.c **** 
  75:Core/Src/main.c ****   /*Configure GPIO pin : PC13 */
  76:Core/Src/main.c ****   GPIOC->MODER &= ~ (3<<13*2);                      //PC13 set to input
  45              		.loc 1 76 3 is_stmt 1 view .LVU5
  46              		.loc 1 76 16 is_stmt 0 view .LVU6
  47 0012 104B     		ldr	r3, .L2+4
  48 0014 1A68     		ldr	r2, [r3]
  49 0016 22F04062 		bic	r2, r2, #201326592
  50 001a 1A60     		str	r2, [r3]
  77:Core/Src/main.c ****   GPIOC->PUPDR &= ~ (3<<13*2);                      //no Pull-up or pull down
  51              		.loc 1 77 3 is_stmt 1 view .LVU7
  52              		.loc 1 77 16 is_stmt 0 view .LVU8
  53 001c DA68     		ldr	r2, [r3, #12]
  54 001e 22F04062 		bic	r2, r2, #201326592
  55 0022 DA60     		str	r2, [r3, #12]
  78:Core/Src/main.c **** 
  79:Core/Src/main.c ****   /*Configure GPIO pin : PA5 */
  80:Core/Src/main.c ****   GPIOA->BSRR = 1<<(5+16);                       //Resets PA5 at bit 21
  56              		.loc 1 80 3 is_stmt 1 view .LVU9
  57              		.loc 1 80 15 is_stmt 0 view .LVU10
  58 0024 4FF09043 		mov	r3, #1207959552
  59 0028 4FF40012 		mov	r2, #2097152
  60 002c 9A61     		str	r2, [r3, #24]
  81:Core/Src/main.c ****   GPIOA->MODER &= ~(3<<(5*2));                   //PA5 set to output (mode 1)  - Step 1
  61              		.loc 1 81 3 is_stmt 1 view .LVU11
  62              		.loc 1 81 16 is_stmt 0 view .LVU12
  63 002e 1A68     		ldr	r2, [r3]
  64 0030 22F44062 		bic	r2, r2, #3072
  65 0034 1A60     		str	r2, [r3]
  82:Core/Src/main.c ****   GPIOA->MODER |= (1<<(5*2));                    //PA5 set to output (mode 1)  - Step 2
  66              		.loc 1 82 3 is_stmt 1 view .LVU13
  67              		.loc 1 82 16 is_stmt 0 view .LVU14
  68 0036 1A68     		ldr	r2, [r3]
  69 0038 42F48062 		orr	r2, r2, #1024
  70 003c 1A60     		str	r2, [r3]
  83:Core/Src/main.c ****   GPIOA->OSPEEDR &= ~(3<<(5*2));                 //PA5 set to low speed (low-current) 
  71              		.loc 1 83 3 is_stmt 1 view .LVU15
  72              		.loc 1 83 18 is_stmt 0 view .LVU16
  73 003e 9A68     		ldr	r2, [r3, #8]
  74 0040 22F44062 		bic	r2, r2, #3072
  75 0044 9A60     		str	r2, [r3, #8]
  84:Core/Src/main.c ****   GPIOA->PUPDR &= ~(3<<(5*2));                   //PA5 set to no pull-up or down 
  76              		.loc 1 84 3 is_stmt 1 view .LVU17
  77              		.loc 1 84 16 is_stmt 0 view .LVU18
  78 0046 DA68     		ldr	r2, [r3, #12]
  79 0048 22F44062 		bic	r2, r2, #3072
  80 004c DA60     		str	r2, [r3, #12]
  85:Core/Src/main.c **** }
  81              		.loc 1 85 1 view .LVU19
  82 004e 7047     		bx	lr
  83              	.L3:
  84              		.align	2
  85              	.L2:
  86 0050 00100240 		.word	1073876992
  87 0054 00080048 		.word	1207961600
ARM GAS  /tmp/ccoGk7K3.s 			page 4


  88              		.cfi_endproc
  89              	.LFE136:
  91              		.section	.text.delayms,"ax",%progbits
  92              		.align	1
  93              		.global	delayms
  94              		.syntax unified
  95              		.thumb
  96              		.thumb_func
  97              		.fpu fpv4-sp-d16
  99              	delayms:
 100              	.LVL0:
 101              	.LFB137:
  86:Core/Src/main.c **** 
  87:Core/Src/main.c **** /*----------------------------------------------------------------
  88:Core/Src/main.c ****  * void delayms(uint16_t ms)
  89:Core/Src/main.c ****  *----------------------------------------------------------------
  90:Core/Src/main.c ****  * Description :  This function will attempt to delay for an
  91:Core/Src/main.c ****  * approximate number of milliseconds based on the provided input
  92:Core/Src/main.c ****  * value.
  93:Core/Src/main.c ****  *----------------------------------------------------------------
  94:Core/Src/main.c ****  * Inputs: uint16_t ms - time in milliseconds that is desired
  95:Core/Src/main.c ****  * to be delayed for.
  96:Core/Src/main.c ****  *----------------------------------------------------------------
  97:Core/Src/main.c ****  * Outputs: None
  98:Core/Src/main.c ****  *----------------------------------------------------------------
  99:Core/Src/main.c ****  * Created by:  Scott Zuidema
 100:Core/Src/main.c ****  *----------------------------------------------------------------
 101:Core/Src/main.c ****  * Date Created: 12/5/2021
 102:Core/Src/main.c ****  *----------------------------------------------------------------
 103:Core/Src/main.c ****  * Revision history:
 104:Core/Src/main.c ****  * 0.1 - 12/5/2021 - First attempt at function (worked)
 105:Core/Src/main.c ****  *----------------------------------------------------------------
 106:Core/Src/main.c ****  * Referenced code from Dr. Karl Brakora from given example
 107:Core/Src/main.c ****  * from 11/3/2021.
 108:Core/Src/main.c ****  *--------------------------------------------------------------*/
 109:Core/Src/main.c **** void delayms(uint16_t ms) //close to milliseconds
 110:Core/Src/main.c **** {
 102              		.loc 1 110 1 is_stmt 1 view -0
 103              		.cfi_startproc
 104              		@ args = 0, pretend = 0, frame = 8
 105              		@ frame_needed = 0, uses_anonymous_args = 0
 106              		@ link register save eliminated.
 107              		.loc 1 110 1 is_stmt 0 view .LVU21
 108 0000 82B0     		sub	sp, sp, #8
 109              	.LCFI0:
 110              		.cfi_def_cfa_offset 8
 111:Core/Src/main.c ****   volatile uint32_t time = 0;
 111              		.loc 1 111 3 is_stmt 1 view .LVU22
 112              		.loc 1 111 21 is_stmt 0 view .LVU23
 113 0002 0023     		movs	r3, #0
 114 0004 0193     		str	r3, [sp, #4]
 112:Core/Src/main.c ****   while(++time < 400 * ms);
 115              		.loc 1 112 3 is_stmt 1 view .LVU24
 116              	.L5:
 117              		.loc 1 112 16 discriminator 1 view .LVU25
 118              		.loc 1 112 9 is_stmt 0 discriminator 1 view .LVU26
 119 0006 019B     		ldr	r3, [sp, #4]
ARM GAS  /tmp/ccoGk7K3.s 			page 5


 120 0008 0133     		adds	r3, r3, #1
 121              		.loc 1 112 16 discriminator 1 view .LVU27
 122 000a 0193     		str	r3, [sp, #4]
 123              		.loc 1 112 22 discriminator 1 view .LVU28
 124 000c 4FF4C872 		mov	r2, #400
 125 0010 00FB02F2 		mul	r2, r0, r2
 126              		.loc 1 112 16 discriminator 1 view .LVU29
 127 0014 9342     		cmp	r3, r2
 128 0016 F6D3     		bcc	.L5
 113:Core/Src/main.c **** }...
 129              		.loc 1 113 1 view .LVU30
 130 0018 02B0     		add	sp, sp, #8
 131              	.LCFI1:
 132              		.cfi_def_cfa_offset 0
 133              		@ sp needed
 134 001a 7047     		bx	lr
 135              		.cfi_endproc
 136              	.LFE137:
 138              		.section	.rodata.main.str1.4,"aMS",%progbits,1
 139              		.align	2
 140              	.LC0:
 141 0000 48656C6C 		.ascii	"Hello World\012\000"
 141      6F20576F 
 141      726C640A 
 141      00
 142              		.section	.text.main,"ax",%progbits
 143              		.align	1
 144              		.global	main
 145              		.syntax unified
 146              		.thumb
 147              		.thumb_func
 148              		.fpu fpv4-sp-d16
 150              	main:
 151              	.LFB135:
  28:Core/Src/main.c **** {
 152              		.loc 1 28 1 is_stmt 1 view -0
 153              		.cfi_startproc
 154              		@ args = 0, pretend = 0, frame = 0
 155              		@ frame_needed = 0, uses_anonymous_args = 0
 156 0000 38B5     		push	{r3, r4, r5, lr}
 157              	.LCFI2:
 158              		.cfi_def_cfa_offset 16
 159              		.cfi_offset 3, -16
 160              		.cfi_offset 4, -12
 161              		.cfi_offset 5, -8
 162              		.cfi_offset 14, -4
  29:Core/Src/main.c ****   GPIO_Init();
 163              		.loc 1 29 3 view .LVU32
 164 0002 FFF7FEFF 		bl	GPIO_Init
 165              	.LVL1:
  30:Core/Src/main.c ****   int i = 1;
 166              		.loc 1 30 3 view .LVU33
  30:Core/Src/main.c ****   int i = 1;
 167              		.loc 1 30 7 is_stmt 0 view .LVU34
 168 0006 0124     		movs	r4, #1
 169 0008 00E0     		b	.L8
 170              	.LVL2:
ARM GAS  /tmp/ccoGk7K3.s 			page 6


 171              	.L13:
  44:Core/Src/main.c ****       i = 1;
 172              		.loc 1 44 9 view .LVU35
 173 000a 0124     		movs	r4, #1
 174              	.LVL3:
 175              	.L8:
  31:Core/Src/main.c ****   while (1)
 176              		.loc 1 31 3 is_stmt 1 view .LVU36
  33:Core/Src/main.c ****     i ++;
 177              		.loc 1 33 5 view .LVU37
  33:Core/Src/main.c ****     i ++;
 178              		.loc 1 33 7 is_stmt 0 view .LVU38
 179 000c 0134     		adds	r4, r4, #1
 180              	.LVL4:
  34:Core/Src/main.c ****     if(!(GPIOC->IDR & 1<<13))          //Light blinks when button 1 pressed (C13)
 181              		.loc 1 34 5 is_stmt 1 view .LVU39
  34:Core/Src/main.c ****     if(!(GPIOC->IDR & 1<<13))          //Light blinks when button 1 pressed (C13)
 182              		.loc 1 34 15 is_stmt 0 view .LVU40
 183 000e 0F4B     		ldr	r3, .L16
 184 0010 1B69     		ldr	r3, [r3, #16]
  34:Core/Src/main.c ****     if(!(GPIOC->IDR & 1<<13))          //Light blinks when button 1 pressed (C13)
 185              		.loc 1 34 7 view .LVU41
 186 0012 13F4005F 		tst	r3, #8192
 187 0016 02D0     		beq	.L15
 188              	.L9:
  42:Core/Src/main.c ****     if(i>100)  //test
 189              		.loc 1 42 5 is_stmt 1 view .LVU42
  42:Core/Src/main.c ****     if(i>100)  //test
 190              		.loc 1 42 7 is_stmt 0 view .LVU43
 191 0018 642C     		cmp	r4, #100
 192 001a F6DC     		bgt	.L13
 193 001c F6E7     		b	.L8
 194              	.L15:
  36:Core/Src/main.c ****       GPIOA->ODR ^= 1<<5;             //Toggle bit A5.
 195              		.loc 1 36 7 is_stmt 1 view .LVU44
  36:Core/Src/main.c ****       GPIOA->ODR ^= 1<<5;             //Toggle bit A5.
 196              		.loc 1 36 18 is_stmt 0 view .LVU45
 197 001e 4FF09042 		mov	r2, #1207959552
 198 0022 5369     		ldr	r3, [r2, #20]
 199 0024 83F02003 		eor	r3, r3, #32
 200 0028 5361     		str	r3, [r2, #20]
  37:Core/Src/main.c ****       delayms(30);
 201              		.loc 1 37 7 is_stmt 1 view .LVU46
 202 002a 1E20     		movs	r0, #30
 203 002c FFF7FEFF 		bl	delayms
 204              	.LVL5:
  38:Core/Src/main.c ****       while(!(GPIOC->IDR & 1<<13));
 205              		.loc 1 38 7 view .LVU47
 206              	.L10:
  38:Core/Src/main.c ****       while(!(GPIOC->IDR & 1<<13));
 207              		.loc 1 38 13 discriminator 1 view .LVU48
  38:Core/Src/main.c ****       while(!(GPIOC->IDR & 1<<13));
 208              		.loc 1 38 20 is_stmt 0 discriminator 1 view .LVU49
 209 0030 064B     		ldr	r3, .L16
 210 0032 1B69     		ldr	r3, [r3, #16]
  38:Core/Src/main.c ****       while(!(GPIOC->IDR & 1<<13));
 211              		.loc 1 38 13 discriminator 1 view .LVU50
ARM GAS  /tmp/ccoGk7K3.s 			page 7


 212 0034 13F4005F 		tst	r3, #8192
 213 0038 FAD0     		beq	.L10
  39:Core/Src/main.c ****       delayms(i);
 214              		.loc 1 39 7 is_stmt 1 view .LVU51
 215 003a A0B2     		uxth	r0, r4
 216 003c FFF7FEFF 		bl	delayms
 217              	.LVL6:
  40:Core/Src/main.c ****       sprintf(print_out,"Hello World\n");
 218              		.loc 1 40 7 view .LVU52
 219 0040 034B     		ldr	r3, .L16+4
 220 0042 044D     		ldr	r5, .L16+8
 221 0044 0FCB     		ldm	r3, {r0, r1, r2, r3}
 222 0046 07C5     		stmia	r5!, {r0, r1, r2}
 223 0048 2B70     		strb	r3, [r5]
 224 004a E5E7     		b	.L9
 225              	.L17:
 226              		.align	2
 227              	.L16:
 228 004c 00080048 		.word	1207961600
 229 0050 00000000 		.word	.LC0
 230 0054 00000000 		.word	.LANCHOR0
 231              		.cfi_endproc
 232              	.LFE135:
 234              		.global	print_out
 235              		.section	.bss.print_out,"aw",%nobits
 236              		.align	2
 237              		.set	.LANCHOR0,. + 0
 240              	print_out:
 241 0000 00000000 		.space	100
 241      00000000 
 241      00000000 
 241      00000000 
 241      00000000 
 242              		.text
 243              	.Letext0:
 244              		.file 2 "/usr/arm-none-eabi/include/machine/_default_types.h"
 245              		.file 3 "/usr/arm-none-eabi/include/sys/_stdint.h"
 246              		.file 4 "Drivers/CMSIS/Device/ST/STM32L4xx/Include/stm32l476xx.h"
 247              		.file 5 "/usr/arm-none-eabi/include/stdio.h"
ARM GAS  /tmp/ccoGk7K3.s 			page 8


DEFINED SYMBOLS
                            *ABS*:0000000000000000 main.c
     /tmp/ccoGk7K3.s:18     .text.GPIO_Init:0000000000000000 $t
     /tmp/ccoGk7K3.s:26     .text.GPIO_Init:0000000000000000 GPIO_Init
     /tmp/ccoGk7K3.s:86     .text.GPIO_Init:0000000000000050 $d
     /tmp/ccoGk7K3.s:92     .text.delayms:0000000000000000 $t
     /tmp/ccoGk7K3.s:99     .text.delayms:0000000000000000 delayms
     /tmp/ccoGk7K3.s:139    .rodata.main.str1.4:0000000000000000 $d
     /tmp/ccoGk7K3.s:143    .text.main:0000000000000000 $t
     /tmp/ccoGk7K3.s:150    .text.main:0000000000000000 main
     /tmp/ccoGk7K3.s:228    .text.main:000000000000004c $d
     /tmp/ccoGk7K3.s:240    .bss.print_out:0000000000000000 print_out
     /tmp/ccoGk7K3.s:236    .bss.print_out:0000000000000000 $d

NO UNDEFINED SYMBOLS
